; Function Attrs: mustprogress nofree nounwind uwtable
define noundef nonnull ptr @_ZN9benchmark8internal9Benchmark13MinWarmUpTimeEd(ptr noundef nonnull returned writeonly align 8 captures(ret: address, provenance) dereferenceable(224) initializes((120, 128)) %0, double noundef %1) local_unnamed_addr #3 align 2 personality ptr @__gxx_personality_v0 {
  %3 = load atomic i8, ptr @_ZGVZN9benchmark8internal18GetNullLogInstanceEvE8null_log acquire, align 8
  %4 = icmp eq i8 %3, 0
  br i1 %4, label %5, label %_ZN9benchmark8internal18GetNullLogInstanceEv.exit, !prof !3

5:                                                ; preds = %2
  %6 = tail call i32 @__cxa_guard_acquire(ptr nonnull @_ZGVZN9benchmark8internal18GetNullLogInstanceEvE8null_log) #35
  %.not.i = icmp eq i32 %6, 0
  br i1 %.not.i, label %_ZN9benchmark8internal18GetNullLogInstanceEv.exit, label %7

7:                                                ; preds = %5
  store ptr null, ptr @_ZZN9benchmark8internal18GetNullLogInstanceEvE8null_log, align 8, !tbaa !18
  tail call void @__cxa_guard_release(ptr nonnull @_ZGVZN9benchmark8internal18GetNullLogInstanceEvE8null_log) #35
  br label %_ZN9benchmark8internal18GetNullLogInstanceEv.exit

_ZN9benchmark8internal18GetNullLogInstanceEv.exit: ; preds = %2, %5, %7
  %8 = load atomic i8, ptr @_ZGVZN9benchmark8internal18GetNullLogInstanceEvE8null_log acquire, align 8
  %9 = icmp eq i8 %8, 0
  br i1 %9, label %10, label %_ZN9benchmark8internal18GetNullLogInstanceEv.exit3, !prof !3

10:                                               ; preds = %_ZN9benchmark8internal18GetNullLogInstanceEv.exit
  %11 = tail call i32 @__cxa_guard_acquire(ptr nonnull @_ZGVZN9benchmark8internal18GetNullLogInstanceEvE8null_log) #35
  %.not.i2 = icmp eq i32 %11, 0
  br i1 %.not.i2, label %_ZN9benchmark8internal18GetNullLogInstanceEv.exit3, label %12

12:                                               ; preds = %10
  store ptr null, ptr @_ZZN9benchmark8internal18GetNullLogInstanceEvE8null_log, align 8, !tbaa !18
  tail call void @__cxa_guard_release(ptr nonnull @_ZGVZN9benchmark8internal18GetNullLogInstanceEvE8null_log) #35
  br label %_ZN9benchmark8internal18GetNullLogInstanceEv.exit3

_ZN9benchmark8internal18GetNullLogInstanceEv.exit3: ; preds = %_ZN9benchmark8internal18GetNullLogInstanceEv.exit, %10, %12
  %13 = getelementptr inbounds nuw i8, ptr %0, i64 120
  store double %1, ptr %13, align 8, !tbaa !174
  ret ptr %0
}